target datalayout = "e-m:e-p270:32:32-p271:32:32-p272:64:64-i64:64-i128:128-f80:128-n8:16:32:64-S128"
target triple = "x86_64-pc-linux-gnu"

%struct._lv_event_t = type { ptr, ptr, i32, ptr, ptr, ptr, i8 }

; Function Attrs: nounwind uwtable
define ptr @lv_event_get_layer(ptr noundef %0) #0 {
  %2 = alloca ptr, align 8
  %3 = alloca ptr, align 8
  store ptr %0, ptr %3, align 8, !tbaa !3
  %4 = load ptr, ptr %3, align 8, !tbaa !3
  %5 = getelementptr inbounds nuw %struct._lv_event_t, ptr %4, i32 0, i32 2
  %6 = load i32, ptr %5, align 8, !tbaa !12
  %7 = icmp eq i32 %6, 29
  br i1 %7, label %33, label %8

8:                                                ; preds = %1
  %9 = load ptr, ptr %3, align 8, !tbaa !3
  %10 = getelementptr inbounds nuw %struct._lv_event_t, ptr %9, i32 0, i32 2
  %11 = load i32, ptr %10, align 8, !tbaa !12
  %12 = icmp eq i32 %11, 28
  br i1 %12, label %33, label %13

13:                                               ; preds = %8
  %14 = load ptr, ptr %3, align 8, !tbaa !3
  %15 = getelementptr inbounds nuw %struct._lv_event_t, ptr %14, i32 0, i32 2
  %16 = load i32, ptr %15, align 8, !tbaa !12
  %17 = icmp eq i32 %16, 30
  br i1 %17, label %33, label %18

18:                                               ; preds = %13
  %19 = load ptr, ptr %3, align 8, !tbaa !3
  %20 = getelementptr inbounds nuw %struct._lv_event_t, ptr %19, i32 0, i32 2
  %21 = load i32, ptr %20, align 8, !tbaa !12
  %22 = icmp eq i32 %21, 32
  br i1 %22, label %33, label %23

23:                                               ; preds = %18
  %24 = load ptr, ptr %3, align 8, !tbaa !3
  %25 = getelementptr inbounds nuw %struct._lv_event_t, ptr %24, i32 0, i32 2
  %26 = load i32, ptr %25, align 8, !tbaa !12
  %27 = icmp eq i32 %26, 31
  br i1 %27, label %33, label %28

28:                                               ; preds = %23
  %29 = load ptr, ptr %3, align 8, !tbaa !3
  %30 = getelementptr inbounds nuw %struct._lv_event_t, ptr %29, i32 0, i32 2
  %31 = load i32, ptr %30, align 8, !tbaa !12
  %32 = icmp eq i32 %31, 33
  br i1 %32, label %33, label %36

33:                                               ; preds = %28, %23, %18, %13, %8, %1
  %34 = load ptr, ptr %3, align 8, !tbaa !3
  %35 = call ptr @lv_event_get_param(ptr noundef %34)
  store ptr %35, ptr %2, align 8
  br label %39

36:                                               ; preds = %28
  br label %37

37:                                               ; preds = %36
  br label %38

38:                                               ; preds = %37
  store ptr null, ptr %2, align 8
  br label %39

39:                                               ; preds = %38, %33
  %40 = load ptr, ptr %2, align 8
  ret ptr %40
}