; Function Attrs: nounwind uwtable
define ptr @lv_event_get_layer(ptr noundef %0) local_unnamed_addr #0 {
  %2 = getelementptr inbounds nuw i8, ptr %0, i64 16
  %3 = load i32, ptr %2, align 8, !tbaa !10
  %.off = add i32 %3, -28
  %switch = icmp ult i32 %.off, 6
  br i1 %switch, label %4, label %6

4:                                                ; preds = %1
  %5 = tail call ptr @lv_event_get_param(ptr noundef nonnull %0) #4
  br label %6

6:                                                ; preds = %1, %4
  %.0 = phi ptr [ %5, %4 ], [ null, %1 ]
  ret ptr %.0
}